; Function Attrs: mustprogress nounwind uwtable
define internal fastcc noundef zeroext i1 @_ZL15check_predicate18CompileCommandEnumRK12methodHandle(i32 noundef %0, ptr noundef nonnull align 8 dereferenceable(16) %1) unnamed_addr #2 {
  %3 = and i32 %0, -2
  %or.cond = icmp eq i32 %3, 4
  br i1 %or.cond, label %4, label %55

4:                                                ; preds = %2
  %5 = load i8, ptr getelementptr inbounds (i8, ptr @_ZL13option_filter, i64 4), align 4
  %6 = trunc i8 %5 to i1
  %7 = load ptr, ptr @_ZL11option_list, align 8
  %.not.i.i = icmp ne ptr %7, null
  %or.cond.not.i.i = select i1 %6, i1 %.not.i.i, i1 false
  br i1 %or.cond.not.i.i, label %.preheader.i.i, label %_ZN14CompilerOracle16has_option_valueIbEEbRK12methodHandle18CompileCommandEnumRT_.exit.i

.preheader.i.i:                                   ; preds = %4, %13
  %.09.i.i.i = phi ptr [ %15, %13 ], [ %7, %4 ]
  %8 = getelementptr inbounds i8, ptr %.09.i.i.i, i64 40
  %9 = load i32, ptr %8, align 8
  %10 = icmp eq i32 %9, 4
  br i1 %10, label %11, label %13

11:                                               ; preds = %.preheader.i.i
  %12 = tail call noundef zeroext i1 @_ZNK13MethodMatcher7matchesERK12methodHandle(ptr noundef nonnull align 8 dereferenceable(32) %.09.i.i.i, ptr noundef nonnull align 8 dereferenceable(16) %1) #19
  br i1 %12, label %_ZN24TypedMethodOptionMatcher5matchERK12methodHandle18CompileCommandEnum.exit.i.i, label %13

13:                                               ; preds = %11, %.preheader.i.i
  %14 = getelementptr inbounds i8, ptr %.09.i.i.i, i64 32
  %15 = load ptr, ptr %14, align 8
  %.not.i.i.i = icmp eq ptr %15, null
  br i1 %.not.i.i.i, label %_ZN14CompilerOracle16has_option_valueIbEEbRK12methodHandle18CompileCommandEnumRT_.exit.i, label %.preheader.i.i, !llvm.loop !6

_ZN24TypedMethodOptionMatcher5matchERK12methodHandle18CompileCommandEnum.exit.i.i: ; preds = %11
  %16 = getelementptr inbounds i8, ptr %.09.i.i.i, i64 48
  %17 = load i8, ptr %16, align 8
  br label %_ZN14CompilerOracle16has_option_valueIbEEbRK12methodHandle18CompileCommandEnumRT_.exit.i

_ZN14CompilerOracle16has_option_valueIbEEbRK12methodHandle18CompileCommandEnumRT_.exit.i: ; preds = %13, %_ZN24TypedMethodOptionMatcher5matchERK12methodHandle18CompileCommandEnum.exit.i.i, %4
  %.035.i = phi i8 [ %17, %_ZN24TypedMethodOptionMatcher5matchERK12methodHandle18CompileCommandEnum.exit.i.i ], [ 0, %4 ], [ 0, %13 ]
  %.0.i.i = phi i1 [ true, %_ZN24TypedMethodOptionMatcher5matchERK12methodHandle18CompileCommandEnum.exit.i.i ], [ false, %4 ], [ false, %13 ]
  %18 = load i8, ptr getelementptr inbounds (i8, ptr @_ZL13option_filter, i64 5), align 1
  %19 = trunc i8 %18 to i1
  %20 = load ptr, ptr @_ZL11option_list, align 8
  %.not.i21.i = icmp ne ptr %20, null
  %or.cond.not.i22.i = select i1 %19, i1 %.not.i21.i, i1 false
  br i1 %or.cond.not.i22.i, label %.preheader.i24.i, label %_ZN14CompilerOracle16has_option_valueIbEEbRK12methodHandle18CompileCommandEnumRT_.exit28.thread.i

.preheader.i24.i:                                 ; preds = %_ZN14CompilerOracle16has_option_valueIbEEbRK12methodHandle18CompileCommandEnumRT_.exit.i, %26
  %.09.i.i25.i = phi ptr [ %28, %26 ], [ %20, %_ZN14CompilerOracle16has_option_valueIbEEbRK12methodHandle18CompileCommandEnumRT_.exit.i ]
  %21 = getelementptr inbounds i8, ptr %.09.i.i25.i, i64 40
  %22 = load i32, ptr %21, align 8
  %23 = icmp eq i32 %22, 5
  br i1 %23, label %24, label %26

24:                                               ; preds = %.preheader.i24.i
  %25 = tail call noundef zeroext i1 @_ZNK13MethodMatcher7matchesERK12methodHandle(ptr noundef nonnull align 8 dereferenceable(32) %.09.i.i25.i, ptr noundef nonnull align 8 dereferenceable(16) %1) #19
  br i1 %25, label %_ZN14CompilerOracle16has_option_valueIbEEbRK12methodHandle18CompileCommandEnumRT_.exit28.i, label %26

26:                                               ; preds = %24, %.preheader.i24.i
  %27 = getelementptr inbounds i8, ptr %.09.i.i25.i, i64 32
  %28 = load ptr, ptr %27, align 8
  %.not.i.i26.i = icmp eq ptr %28, null
  br i1 %.not.i.i26.i, label %_ZN14CompilerOracle16has_option_valueIbEEbRK12methodHandle18CompileCommandEnumRT_.exit28.thread.i, label %.preheader.i24.i, !llvm.loop !6

_ZN14CompilerOracle16has_option_valueIbEEbRK12methodHandle18CompileCommandEnumRT_.exit28.i: ; preds = %24
  %29 = getelementptr inbounds i8, ptr %.09.i.i25.i, i64 48
  %30 = load i8, ptr %29, align 8
  br i1 %.0.i.i, label %31, label %_ZN14CompilerOracle16has_option_valueIbEEbRK12methodHandle18CompileCommandEnumRT_.exit28.thread.i

31:                                               ; preds = %_ZN14CompilerOracle16has_option_valueIbEEbRK12methodHandle18CompileCommandEnumRT_.exit28.i
  %32 = trunc i8 %.035.i to i1
  br i1 %32, label %33, label %45

33:                                               ; preds = %31
  %34 = trunc i8 %30 to i1
  br i1 %34, label %.preheader.i, label %45

.preheader.i:                                     ; preds = %33
  %.045.i = load ptr, ptr @_ZL11option_list, align 8
  %.not46.i = icmp eq ptr %.045.i, null
  br i1 %.not46.i, label %._crit_edge.i, label %.lr.ph.i

.lr.ph.i:                                         ; preds = %.preheader.i, %42
  %.047.i = phi ptr [ %.0.i, %42 ], [ %.045.i, %.preheader.i ]
  %35 = getelementptr inbounds i8, ptr %.047.i, i64 40
  %36 = load i32, ptr %35, align 8
  %37 = and i32 %36, -2
  %or.cond.i = icmp eq i32 %37, 4
  br i1 %or.cond.i, label %38, label %42

38:                                               ; preds = %.lr.ph.i
  %39 = tail call noundef zeroext i1 @_ZNK13MethodMatcher7matchesERK12methodHandle(ptr noundef nonnull align 8 dereferenceable(32) %.047.i, ptr noundef nonnull align 8 dereferenceable(16) %1) #19
  br i1 %39, label %40, label %42

40:                                               ; preds = %38
  %41 = icmp eq i32 %36, %0
  br label %_ZL26resolve_inlining_predicate18CompileCommandEnumRK12methodHandle.exit

42:                                               ; preds = %38, %.lr.ph.i
  %43 = getelementptr inbounds i8, ptr %.047.i, i64 32
  %.0.i = load ptr, ptr %43, align 8
  %.not.i = icmp eq ptr %.0.i, null
  br i1 %.not.i, label %._crit_edge.i, label %.lr.ph.i, !llvm.loop !8

._crit_edge.i:                                    ; preds = %42, %.preheader.i
  %44 = load ptr, ptr @g_assert_poison, align 8
  store i8 88, ptr %44, align 1
  tail call void @_Z28report_should_not_reach_herePKci(ptr noundef nonnull @.str.10, i32 noundef 391) #20
  unreachable

45:                                               ; preds = %33, %31
  %46 = icmp eq i32 %0, 4
  %.v.i = select i1 %46, i8 %.035.i, i8 %30
  %47 = trunc i8 %.v.i to i1
  br label %_ZL26resolve_inlining_predicate18CompileCommandEnumRK12methodHandle.exit

_ZN14CompilerOracle16has_option_valueIbEEbRK12methodHandle18CompileCommandEnumRT_.exit28.thread.i: ; preds = %26, %_ZN14CompilerOracle16has_option_valueIbEEbRK12methodHandle18CompileCommandEnumRT_.exit28.i, %_ZN14CompilerOracle16has_option_valueIbEEbRK12methodHandle18CompileCommandEnumRT_.exit.i
  %.0.i2342.i = phi i1 [ true, %_ZN14CompilerOracle16has_option_valueIbEEbRK12methodHandle18CompileCommandEnumRT_.exit28.i ], [ false, %_ZN14CompilerOracle16has_option_valueIbEEbRK12methodHandle18CompileCommandEnumRT_.exit.i ], [ false, %26 ]
  %.03441.i = phi i8 [ %30, %_ZN14CompilerOracle16has_option_valueIbEEbRK12methodHandle18CompileCommandEnumRT_.exit28.i ], [ 0, %_ZN14CompilerOracle16has_option_valueIbEEbRK12methodHandle18CompileCommandEnumRT_.exit.i ], [ 0, %26 ]
  %48 = icmp eq i32 %0, 4
  br i1 %48, label %49, label %52

49:                                               ; preds = %_ZN14CompilerOracle16has_option_valueIbEEbRK12methodHandle18CompileCommandEnumRT_.exit28.thread.i
  %50 = trunc i8 %.035.i to i1
  %51 = select i1 %.0.i.i, i1 %50, i1 false
  br label %_ZL26resolve_inlining_predicate18CompileCommandEnumRK12methodHandle.exit

52:                                               ; preds = %_ZN14CompilerOracle16has_option_valueIbEEbRK12methodHandle18CompileCommandEnumRT_.exit28.thread.i
  %53 = trunc i8 %.03441.i to i1
  %54 = select i1 %.0.i2342.i, i1 %53, i1 false
  br label %_ZL26resolve_inlining_predicate18CompileCommandEnumRK12methodHandle.exit

55:                                               ; preds = %2
  %56 = sext i32 %0 to i64
  %57 = getelementptr inbounds [41 x i8], ptr @_ZL13option_filter, i64 0, i64 %56
  %58 = load i8, ptr %57, align 1
  %59 = trunc i8 %58 to i1
  %60 = load ptr, ptr @_ZL11option_list, align 8
  %.not.i8 = icmp ne ptr %60, null
  %or.cond.not.i = select i1 %59, i1 %.not.i8, i1 false
  br i1 %or.cond.not.i, label %.preheader.i10, label %_ZL26resolve_inlining_predicate18CompileCommandEnumRK12methodHandle.exit

.preheader.i10:                                   ; preds = %55, %66
  %.09.i.i = phi ptr [ %68, %66 ], [ %60, %55 ]
  %61 = getelementptr inbounds i8, ptr %.09.i.i, i64 40
  %62 = load i32, ptr %61, align 8
  %63 = icmp eq i32 %62, %0
  br i1 %63, label %64, label %66

64:                                               ; preds = %.preheader.i10
  %65 = tail call noundef zeroext i1 @_ZNK13MethodMatcher7matchesERK12methodHandle(ptr noundef nonnull align 8 dereferenceable(32) %.09.i.i, ptr noundef nonnull align 8 dereferenceable(16) %1) #19
  br i1 %65, label %69, label %66

66:                                               ; preds = %64, %.preheader.i10
  %67 = getelementptr inbounds i8, ptr %.09.i.i, i64 32
  %68 = load ptr, ptr %67, align 8
  %.not.i.i11 = icmp eq ptr %68, null
  br i1 %.not.i.i11, label %_ZL26resolve_inlining_predicate18CompileCommandEnumRK12methodHandle.exit, label %.preheader.i10, !llvm.loop !6

69:                                               ; preds = %64
  %70 = getelementptr inbounds i8, ptr %.09.i.i, i64 48
  %71 = load i8, ptr %70, align 8
  %72 = trunc i8 %71 to i1
  br label %_ZL26resolve_inlining_predicate18CompileCommandEnumRK12methodHandle.exit

_ZL26resolve_inlining_predicate18CompileCommandEnumRK12methodHandle.exit: ; preds = %66, %55, %52, %49, %45, %40, %69
  %.0 = phi i1 [ %72, %69 ], [ %41, %40 ], [ %47, %45 ], [ %51, %49 ], [ %54, %52 ], [ false, %55 ], [ false, %66 ]
  ret i1 %.0
}